target datalayout = "e-m:e-p270:32:32-p271:32:32-p272:64:64-i64:64-i128:128-f80:128-n8:16:32:64-S128"
target triple = "x86_64-unknown-linux-gnu"

@.str.19 = private unnamed_addr constant [29 x i8] c"%s: Couldn't nop node %s: %s\00", align 1
@__func__.qemu_fdt_nop_node = private unnamed_addr constant [18 x i8] c"qemu_fdt_nop_node\00", align 1
@.str.39 = private unnamed_addr constant [29 x i8] c"%s Couldn't find node %s: %s\00", align 1
@__func__.findnode_nofail = private unnamed_addr constant [16 x i8] c"findnode_nofail\00", align 1

; Function Attrs: nounwind sspstrong uwtable
define internal i32 @findnode_nofail(ptr noundef %fdt, ptr noundef %node_path) #0 {
entry:
  %fdt.addr = alloca ptr, align 8
  %node_path.addr = alloca ptr, align 8
  %offset = alloca i32, align 4
  store ptr %fdt, ptr %fdt.addr, align 8
  store ptr %node_path, ptr %node_path.addr, align 8
  %0 = load ptr, ptr %fdt.addr, align 8
  %1 = load ptr, ptr %node_path.addr, align 8
  %call = call i32 @fdt_path_offset(ptr noundef %0, ptr noundef %1)
  store i32 %call, ptr %offset, align 4
  %2 = load i32, ptr %offset, align 4
  %cmp = icmp slt i32 %2, 0
  br i1 %cmp, label %if.then, label %if.end

if.then:                                          ; preds = %entry
  %3 = load ptr, ptr %node_path.addr, align 8
  %4 = load i32, ptr %offset, align 4
  %call1 = call ptr @fdt_strerror(i32 noundef %4)
  call void (ptr, ...) @error_report(ptr noundef @.str.39, ptr noundef @__func__.findnode_nofail, ptr noundef %3, ptr noundef %call1)
  call void @exit(i32 noundef 1) #10
  unreachable

if.end:                                           ; preds = %entry
  %5 = load i32, ptr %offset, align 4
  ret i32 %5
}

; Function Attrs: nounwind sspstrong uwtable
define dso_local i32 @qemu_fdt_nop_node(ptr noundef %fdt, ptr noundef %node_path) #0 {
entry:
  %fdt.addr = alloca ptr, align 8
  %node_path.addr = alloca ptr, align 8
  %r = alloca i32, align 4
  store ptr %fdt, ptr %fdt.addr, align 8
  store ptr %node_path, ptr %node_path.addr, align 8
  %0 = load ptr, ptr %fdt.addr, align 8
  %1 = load ptr, ptr %fdt.addr, align 8
  %2 = load ptr, ptr %node_path.addr, align 8
  %call = call i32 @findnode_nofail(ptr noundef %1, ptr noundef %2)
  %call1 = call i32 @fdt_nop_node(ptr noundef %0, i32 noundef %call)
  store i32 %call1, ptr %r, align 4
  %3 = load i32, ptr %r, align 4
  %cmp = icmp slt i32 %3, 0
  br i1 %cmp, label %if.then, label %if.end

if.then:                                          ; preds = %entry
  %4 = load ptr, ptr %node_path.addr, align 8
  %5 = load i32, ptr %r, align 4
  %call2 = call ptr @fdt_strerror(i32 noundef %5)
  call void (ptr, ...) @error_report(ptr noundef @.str.19, ptr noundef @__func__.qemu_fdt_nop_node, ptr noundef %4, ptr noundef %call2)
  call void @exit(i32 noundef 1) #10
  unreachable

if.end:                                           ; preds = %entry
  %6 = load i32, ptr %r, align 4
  ret i32 %6
}